target datalayout = "e-m:e-p270:32:32-p271:32:32-p272:64:64-i64:64-i128:128-f80:128-n8:16:32:64-S128"
target triple = "x86_64-pc-linux-gnu"

%struct.mbedtls_ssl_context = type { ptr, i32, i32, i32, i32, i32, ptr, ptr, ptr, ptr, ptr, ptr, ptr, ptr, ptr, ptr, ptr, ptr, ptr, ptr, ptr, ptr, ptr, ptr, ptr, ptr, ptr, ptr, ptr, ptr, ptr, ptr, ptr, i32, i64, i64, i16, i64, i64, i64, i64, i32, i32, i8, i8, i32, i8, ptr, ptr, ptr, ptr, ptr, ptr, ptr, i32, i64, i64, [8 x i8], i16, ptr, ptr, ptr, i64, i32, i64, [12 x i8], [12 x i8], [32 x i8], i8, i8, ptr, ptr, %union.mbedtls_ssl_user_data_t }
%union.mbedtls_ssl_user_data_t = type { i64 }
%struct.mbedtls_record = type { [8 x i8], i8, [2 x i8], ptr, i64, i64, i64, i8, [32 x i8] }
%struct.mbedtls_ssl_config = type { i32, i32, i8, i8, i8, i8, i8, i8, i8, i8, i8, i8, i16, i8, i8, i8, ptr, i32, ptr, ptr, ptr, ptr, ptr, ptr, ptr, ptr, ptr, ptr, ptr, ptr, ptr, ptr, ptr, ptr, ptr, ptr, ptr, i64, ptr, ptr, ptr, ptr, ptr, ptr, ptr, ptr, %struct.mbedtls_mpi, %struct.mbedtls_mpi, ptr, i64, ptr, i64, ptr, i32, i32, i32, i32, [8 x i8], i32, i32, %union.mbedtls_ssl_user_data_t, ptr, ptr }
%struct.mbedtls_mpi = type { ptr, i16, i16 }

@.str = private unnamed_addr constant [121 x i8] c"generated/home/dtcxzyw/WorkSpace/Projects/compilers/llvm-opt-benchmark/bench/lief/bench_build/mbed_src/library/ssl_msg.c\00", align 1
@.str.3 = private unnamed_addr constant [28 x i8] c"=> mbedtls_ssl_check_record\00", align 1
@.str.4 = private unnamed_addr constant [14 x i8] c"record buffer\00", align 1
@.str.5 = private unnamed_addr constant [24 x i8] c"ssl_parse_record_header\00", align 1
@.str.6 = private unnamed_addr constant [24 x i8] c"mbedtls_ssl_decrypt_buf\00", align 1
@.str.7 = private unnamed_addr constant [28 x i8] c"<= mbedtls_ssl_check_record\00", align 1

; Function Attrs: nounwind uwtable
define hidden i32 @mbedtls_ssl_check_record(ptr noundef %0, ptr noundef %1, i64 noundef %2) #0 {
  %4 = alloca i32, align 4
  %5 = alloca ptr, align 8
  %6 = alloca ptr, align 8
  %7 = alloca i64, align 8
  %8 = alloca i32, align 4
  %9 = alloca %struct.mbedtls_record, align 8
  %10 = alloca i32, align 4
  store ptr %0, ptr %5, align 8, !tbaa !3
  store ptr %1, ptr %6, align 8, !tbaa !21
  store i64 %2, ptr %7, align 8, !tbaa !22
  call void @llvm.lifetime.start.p0(i64 4, ptr %8) #11
  store i32 0, ptr %8, align 4, !tbaa !8
  %11 = load ptr, ptr %5, align 8, !tbaa !3
  call void (ptr, i32, ptr, i32, ptr, ...) @mbedtls_debug_print_msg(ptr noundef %11, i32 noundef 1, ptr noundef @.str, i32 noundef 323, ptr noundef @.str.3)
  %12 = load ptr, ptr %5, align 8, !tbaa !3
  %13 = load ptr, ptr %6, align 8, !tbaa !21
  %14 = load i64, ptr %7, align 8, !tbaa !22
  call void @mbedtls_debug_print_buf(ptr noundef %12, i32 noundef 3, ptr noundef @.str, i32 noundef 324, ptr noundef @.str.4, ptr noundef %13, i64 noundef %14)
  %15 = load ptr, ptr %5, align 8, !tbaa !3
  %16 = getelementptr inbounds nuw %struct.mbedtls_ssl_context, ptr %15, i32 0, i32 0
  %17 = load ptr, ptr %16, align 8, !tbaa !23
  %18 = getelementptr inbounds nuw %struct.mbedtls_ssl_config, ptr %17, i32 0, i32 3
  %19 = load i8, ptr %18, align 1, !tbaa !24
  %20 = zext i8 %19 to i32
  %21 = icmp eq i32 %20, 0
  br i1 %21, label %22, label %23

22:                                               ; preds = %3
  store i32 -28800, ptr %8, align 4, !tbaa !8
  br label %55

23:                                               ; preds = %3
  call void @llvm.lifetime.start.p0(i64 88, ptr %9) #11
  %24 = load ptr, ptr %5, align 8, !tbaa !3
  %25 = load ptr, ptr %6, align 8, !tbaa !21
  %26 = load i64, ptr %7, align 8, !tbaa !22
  %27 = call i32 @ssl_parse_record_header(ptr noundef %24, ptr noundef %25, i64 noundef %26, ptr noundef %9)
  store i32 %27, ptr %8, align 4, !tbaa !8
  %28 = load i32, ptr %8, align 4, !tbaa !8
  %29 = icmp ne i32 %28, 0
  br i1 %29, label %30, label %33

30:                                               ; preds = %23
  %31 = load ptr, ptr %5, align 8, !tbaa !3
  %32 = load i32, ptr %8, align 4, !tbaa !8
  call void @mbedtls_debug_print_ret(ptr noundef %31, i32 noundef 3, ptr noundef @.str, i32 noundef 339, ptr noundef @.str.5, i32 noundef %32)
  store i32 2, ptr %10, align 4
  br label %51

33:                                               ; preds = %23
  %34 = load ptr, ptr %5, align 8, !tbaa !3
  %35 = getelementptr inbounds nuw %struct.mbedtls_ssl_context, ptr %34, i32 0, i32 17
  %36 = load ptr, ptr %35, align 8, !tbaa !36
  %37 = icmp ne ptr %36, null
  br i1 %37, label %38, label %50

38:                                               ; preds = %33
  %39 = load ptr, ptr %5, align 8, !tbaa !3
  %40 = load ptr, ptr %5, align 8, !tbaa !3
  %41 = getelementptr inbounds nuw %struct.mbedtls_ssl_context, ptr %40, i32 0, i32 17
  %42 = load ptr, ptr %41, align 8, !tbaa !36
  %43 = call i32 @mbedtls_ssl_decrypt_buf(ptr noundef %39, ptr noundef %42, ptr noundef %9)
  store i32 %43, ptr %8, align 4, !tbaa !8
  %44 = load i32, ptr %8, align 4, !tbaa !8
  %45 = icmp ne i32 %44, 0
  br i1 %45, label %46, label %49

46:                                               ; preds = %38
  %47 = load ptr, ptr %5, align 8, !tbaa !3
  %48 = load i32, ptr %8, align 4, !tbaa !8
  call void @mbedtls_debug_print_ret(ptr noundef %47, i32 noundef 3, ptr noundef @.str, i32 noundef 346, ptr noundef @.str.6, i32 noundef %48)
  store i32 2, ptr %10, align 4
  br label %51

49:                                               ; preds = %38
  br label %50

50:                                               ; preds = %49, %33
  store i32 0, ptr %10, align 4
  br label %51

51:                                               ; preds = %46, %30, %50
  call void @llvm.lifetime.end.p0(i64 88, ptr %9) #11
  %52 = load i32, ptr %10, align 4
  switch i32 %52, label %67 [
    i32 0, label %53
    i32 2, label %55
  ]

53:                                               ; preds = %51
  br label %54

54:                                               ; preds = %53
  br label %55

55:                                               ; preds = %54, %51, %22
  %56 = load ptr, ptr %6, align 8, !tbaa !21
  %57 = load i64, ptr %7, align 8, !tbaa !22
  call void @mbedtls_platform_zeroize(ptr noundef %56, i64 noundef %57)
  %58 = load i32, ptr %8, align 4, !tbaa !8
  %59 = icmp eq i32 %58, -24576
  br i1 %59, label %63, label %60

60:                                               ; preds = %55
  %61 = load i32, ptr %8, align 4, !tbaa !8
  %62 = icmp eq i32 %61, -25728
  br i1 %62, label %63, label %64

63:                                               ; preds = %60, %55
  store i32 -26368, ptr %8, align 4, !tbaa !8
  br label %64

64:                                               ; preds = %63, %60
  %65 = load ptr, ptr %5, align 8, !tbaa !3
  call void (ptr, i32, ptr, i32, ptr, ...) @mbedtls_debug_print_msg(ptr noundef %65, i32 noundef 1, ptr noundef @.str, i32 noundef 365, ptr noundef @.str.7)
  %66 = load i32, ptr %8, align 4, !tbaa !8
  store i32 %66, ptr %4, align 4
  store i32 1, ptr %10, align 4
  br label %67

67:                                               ; preds = %64, %51
  call void @llvm.lifetime.end.p0(i64 4, ptr %8) #11
  %68 = load i32, ptr %4, align 4
  ret i32 %68
}