; Function Attrs: nounwind uwtable
define hidden i32 @mbedtls_ssl_check_record(ptr noundef %0, ptr noundef %1, i64 noundef %2) local_unnamed_addr #0 {
  %4 = alloca %struct.mbedtls_record, align 8
  tail call void (ptr, i32, ptr, i32, ptr, ...) @mbedtls_debug_print_msg(ptr noundef %0, i32 noundef 1, ptr noundef nonnull @.str, i32 noundef 323, ptr noundef nonnull @.str.3) #19
  tail call void @mbedtls_debug_print_buf(ptr noundef %0, i32 noundef 3, ptr noundef nonnull @.str, i32 noundef 324, ptr noundef nonnull @.str.4, ptr noundef %1, i64 noundef %2) #19
  %5 = load ptr, ptr %0, align 8, !tbaa !18
  %6 = getelementptr inbounds nuw i8, ptr %5, i64 9
  %7 = load i8, ptr %6, align 1, !tbaa !19
  %8 = icmp eq i8 %7, 0
  br i1 %8, label %19, label %9

9:                                                ; preds = %3
  call void @llvm.lifetime.start.p0(i64 88, ptr nonnull %4) #19
  %10 = call fastcc i32 @ssl_parse_record_header(ptr noundef nonnull %0, ptr noundef %1, i64 noundef %2, ptr noundef %4)
  %.not = icmp eq i32 %10, 0
  br i1 %.not, label %12, label %11

11:                                               ; preds = %9
  call void @mbedtls_debug_print_ret(ptr noundef nonnull %0, i32 noundef 3, ptr noundef nonnull @.str, i32 noundef 339, ptr noundef nonnull @.str.5, i32 noundef %10) #19
  br label %18

12:                                               ; preds = %9
  %13 = getelementptr inbounds nuw i8, ptr %0, i64 120
  %14 = load ptr, ptr %13, align 8, !tbaa !31
  %.not32 = icmp eq ptr %14, null
  br i1 %.not32, label %18, label %15

15:                                               ; preds = %12
  %16 = call i32 @mbedtls_ssl_decrypt_buf(ptr noundef nonnull %0, ptr noundef nonnull %14, ptr noundef nonnull %4)
  %.not33 = icmp eq i32 %16, 0
  br i1 %.not33, label %18, label %17

17:                                               ; preds = %15
  call void @mbedtls_debug_print_ret(ptr noundef nonnull %0, i32 noundef 3, ptr noundef nonnull @.str, i32 noundef 346, ptr noundef nonnull @.str.6, i32 noundef %16) #19
  br label %18

18:                                               ; preds = %12, %15, %17, %11
  %.1 = phi i32 [ %10, %11 ], [ %16, %17 ], [ 0, %15 ], [ 0, %12 ]
  call void @llvm.lifetime.end.p0(i64 88, ptr nonnull %4) #19
  br label %19

19:                                               ; preds = %18, %3
  %.025 = phi i32 [ %.1, %18 ], [ -28800, %3 ]
  call void @mbedtls_platform_zeroize(ptr noundef %1, i64 noundef %2) #19
  %20 = icmp eq i32 %.025, -24576
  %21 = icmp eq i32 %.025, -25728
  %or.cond = or i1 %20, %21
  %spec.store.select = select i1 %or.cond, i32 -26368, i32 %.025
  call void (ptr, i32, ptr, i32, ptr, ...) @mbedtls_debug_print_msg(ptr noundef nonnull %0, i32 noundef 1, ptr noundef nonnull @.str, i32 noundef 365, ptr noundef nonnull @.str.7) #19
  ret i32 %spec.store.select
}